target datalayout = "e-m:e-p270:32:32-p271:32:32-p272:64:64-i64:64-i128:128-f80:128-n8:16:32:64-S128"
target triple = "x86_64-pc-linux-gnu"

%class.SharedClassPathEntry = type { i8, i8, i8, i64, i64, ptr, ptr }
%class.Array = type <{ i32, [1 x i8], [3 x i8] }>
%class.anon.25 = type { i8 }

@_ZN11ClassLoader10_jrt_entryE = external global ptr, align 8

; Function Attrs: mustprogress nounwind uwtable
define linkonce_odr hidden noundef i64 @_ZZN5ArrayIcE20base_offset_in_bytesEvENKUlvE_clEv(ptr noundef nonnull align 1 dereferenceable(1) %0) #1 comdat align 2 {
  %2 = alloca ptr, align 8
  %3 = alloca [8 x i8], align 16
  %4 = alloca ptr, align 8
  %5 = alloca ptr, align 8
  store ptr %0, ptr %2, align 8
  %6 = getelementptr inbounds [8 x i8], ptr %3, i64 0, i64 0
  store ptr %6, ptr %4, align 8
  %7 = load ptr, ptr %4, align 8
  %8 = getelementptr inbounds %class.Array, ptr %7, i32 0, i32 1
  store ptr %8, ptr %5, align 8
  %9 = load ptr, ptr %5, align 8
  %10 = getelementptr inbounds [8 x i8], ptr %3, i64 0, i64 0
  %11 = ptrtoint ptr %9 to i64
  %12 = ptrtoint ptr %10 to i64
  %13 = sub i64 %11, %12
  ret i64 %13
}

; Function Attrs: mustprogress nounwind uwtable
define linkonce_odr hidden noundef i32 @_ZN5ArrayIcE20base_offset_in_bytesEv() #1 comdat align 2 {
  %1 = alloca %class.anon.25, align 1
  %2 = call noundef i64 @_ZZN5ArrayIcE20base_offset_in_bytesEvENKUlvE_clEv(ptr noundef nonnull align 1 dereferenceable(1) %1)
  %3 = trunc i64 %2 to i32
  ret i32 %3
}

; Function Attrs: mustprogress nounwind uwtable
define linkonce_odr hidden noundef ptr @_ZN5ArrayIcE4dataEv(ptr noundef nonnull align 4 dereferenceable(5) %0) #1 comdat align 2 {
  %2 = alloca ptr, align 8
  store ptr %0, ptr %2, align 8
  %3 = load ptr, ptr %2, align 8
  %4 = call noundef i32 @_ZN5ArrayIcE20base_offset_in_bytesEv()
  %5 = sext i32 %4 to i64
  %6 = getelementptr inbounds i8, ptr %3, i64 %5
  ret ptr %6
}

; Function Attrs: mustprogress nounwind uwtable
define linkonce_odr hidden noundef ptr @_ZN11ClassLoader13get_jrt_entryEv() #1 comdat align 2 {
  %1 = load ptr, ptr @_ZN11ClassLoader10_jrt_entryE, align 8
  ret ptr %1
}

; Function Attrs: mustprogress nounwind uwtable
define linkonce_odr hidden noundef zeroext i1 @_ZNK20SharedClassPathEntry16is_modules_imageEv(ptr noundef nonnull align 8 dereferenceable(40) %0) #1 comdat align 2 {
  %2 = alloca ptr, align 8
  store ptr %0, ptr %2, align 8
  %3 = load ptr, ptr %2, align 8
  %4 = getelementptr inbounds %class.SharedClassPathEntry, ptr %3, i32 0, i32 0
  %5 = load i8, ptr %4, align 8
  %6 = zext i8 %5 to i32
  %7 = icmp eq i32 %6, 0
  ret i1 %7
}

; Function Attrs: mustprogress nounwind uwtable
define hidden noundef ptr @_ZNK20SharedClassPathEntry4nameEv(ptr noundef nonnull align 8 dereferenceable(40) %0) #1 align 2 {
  %2 = alloca ptr, align 8
  %3 = alloca ptr, align 8
  store ptr %0, ptr %3, align 8
  %4 = load ptr, ptr %3, align 8
  %5 = call noundef zeroext i1 @_ZN9CDSConfig16is_using_archiveEv()
  br i1 %5, label %6, label %14

6:                                                ; preds = %1
  %7 = call noundef zeroext i1 @_ZNK20SharedClassPathEntry16is_modules_imageEv(ptr noundef nonnull align 8 dereferenceable(40) %4)
  br i1 %7, label %8, label %14

8:                                                ; preds = %6
  %9 = call noundef ptr @_ZN11ClassLoader13get_jrt_entryEv()
  %10 = load ptr, ptr %9, align 8
  %11 = getelementptr inbounds ptr, ptr %10, i64 5
  %12 = load ptr, ptr %11, align 8
  %13 = call noundef ptr %12(ptr noundef nonnull align 8 dereferenceable(16) %9)
  store ptr %13, ptr %2, align 8
  br label %18

14:                                               ; preds = %6, %1
  %15 = getelementptr inbounds %class.SharedClassPathEntry, ptr %4, i32 0, i32 5
  %16 = load ptr, ptr %15, align 8
  %17 = call noundef ptr @_ZN5ArrayIcE4dataEv(ptr noundef nonnull align 4 dereferenceable(5) %16)
  store ptr %17, ptr %2, align 8
  br label %18

18:                                               ; preds = %14, %8
  %19 = load ptr, ptr %2, align 8
  ret ptr %19
}