; Function Attrs: mustprogress nounwind uwtable
define hidden noundef ptr @_ZNK20SharedClassPathEntry4nameEv(ptr nocapture noundef nonnull readonly align 8 dereferenceable(40) %0) local_unnamed_addr #0 align 2 {
  %2 = tail call noundef zeroext i1 @_ZN9CDSConfig16is_using_archiveEv() #25
  %3 = load i8, ptr %0, align 8
  %4 = icmp eq i8 %3, 0
  %or.cond = select i1 %2, i1 %4, i1 false
  br i1 %or.cond, label %5, label %11

5:                                                ; preds = %1
  %6 = load ptr, ptr @_ZN11ClassLoader10_jrt_entryE, align 8
  %7 = load ptr, ptr %6, align 8
  %8 = getelementptr inbounds i8, ptr %7, i64 40
  %9 = load ptr, ptr %8, align 8
  %10 = tail call noundef ptr %9(ptr noundef nonnull align 8 dereferenceable(16) %6) #25
  br label %15

11:                                               ; preds = %1
  %12 = getelementptr inbounds i8, ptr %0, i64 24
  %13 = load ptr, ptr %12, align 8
  %14 = getelementptr inbounds i8, ptr %13, i64 4
  br label %15

15:                                               ; preds = %11, %5
  %.0 = phi ptr [ %10, %5 ], [ %14, %11 ]
  ret ptr %.0
}